Certificate:
    Data:
        Version: 3 (0x2)
        Serial Number: 57 (0x39)
        Signature Algorithm: sha256WithRSAEncryption
        Issuer: C=US, O=Google, OU=Enterprise, CN=Enterprise Subordinate CA
        Validity
            Not Before: Sep 17 02:47:39 2023 GMT
            Not After : Dec 25 02:47:39 2025 GMT
        Subject: C=US, O=Google, OU=Enterprise, CN=be.service.consul
        Subject Public Key Info:
            Public Key Algorithm: rsaEncryption
                Public-Key: (2048 bit)
                Modulus:
                    00:a3:a0:ea:f3:db:b3:5e:af:f9:41:e5:01:71:2b:
                    a4:a1:f7:d5:47:66:67:aa:46:c1:f1:b1:30:1b:3d:
                    93:ca:2c:30:43:49:7e:fd:f3:4d:ce:d6:52:85:90:
                    45:98:ff:fe:ba:0d:8e:97:cb:15:fd:e1:7a:eb:33:
                    95:9e:5a:8a:a2:0e:9a:2f:f9:33:27:48:c8:c6:70:
                    c2:3d:2f:d1:07:71:bc:74:9f:b8:87:0c:c0:c5:35:
                    ea:9d:4c:72:5e:ea:11:9d:1e:c7:b5:3b:3a:fc:60:
                    c3:ee:91:0e:a3:07:e5:e2:c8:bb:7a:b4:b4:1a:8f:
                    b4:08:55:e6:f8:98:aa:f4:d4:b2:27:bf:28:fc:58:
                    fa:1b:6a:f0:9f:f1:8a:1c:e1:ab:f2:c0:5a:1c:4d:
                    6e:99:fc:d2:16:91:57:83:b8:ac:7c:c4:20:ed:ca:
                    74:9e:49:8c:1a:24:e1:91:1a:25:49:5d:44:26:9d:
                    10:f7:eb:f3:73:3c:27:93:1d:74:7d:a5:fb:5e:52:
                    9a:a3:ea:06:1d:78:fa:b6:90:88:09:f8:d4:ac:57:
                    03:31:0b:4b:55:98:d7:97:db:3c:12:e2:fe:83:3d:
                    0e:d0:91:08:10:c2:79:bd:7c:bb:0b:e1:04:28:15:
                    69:3c:f4:6b:2b:70:d9:c6:e9:7f:f2:cf:82:a9:0e:
                    11:81
                Exponent: 65537 (0x10001)
        X509v3 extensions:
            X509v3 Key Usage: critical
                Digital Signature
            X509v3 Basic Constraints: 
                CA:FALSE
            X509v3 Extended Key Usage: 
                TLS Web Server Authentication
            X509v3 Subject Key Identifier: 
                4C:A8:D7:24:7F:6E:4B:EC:33:3E:18:5F:BA:98:80:52:FB:88:E6:36
            X509v3 Authority Key Identifier: 
                B7:BA:B0:02:A1:E7:BE:34:C6:C1:05:5C:66:78:E5:BB:53:5D:A1:54
            Authority Information Access: 
                CA Issuers - URI:http://pki.esodemoapp2.com/ca/tls-ca.cer
            X509v3 CRL Distribution Points: 
                Full Name:
                  URI:http://pki.esodemoapp2.com/ca/tls-ca.crl
            X509v3 Subject Alternative Name: 
                DNS:be.service.consul
    Signature Algorithm: sha256WithRSAEncryption
    Signature Value:
        4f:42:d1:a6:b4:ec:9c:ad:27:6f:35:ca:cd:e6:78:c3:6f:54:
        1c:7a:25:f2:c5:a1:9c:7a:56:30:a8:ab:1e:0c:93:3e:34:31:
        07:37:9f:e4:3a:bf:e2:82:1a:39:71:e1:75:0d:e4:3e:27:54:
        38:6f:88:6c:de:fa:0d:c0:30:66:66:83:3f:e0:a7:fe:25:44:
        7d:a8:d1:0d:25:7b:0d:11:2d:85:b0:df:dd:74:a9:04:2d:2e:
        f2:3d:c9:01:d8:31:5c:87:05:3c:35:a9:6a:2d:7c:94:3e:53:
        f7:dc:e6:1b:5d:15:f4:c4:55:b7:34:60:42:be:77:78:32:d2:
        38:91:9f:82:78:f2:b0:8d:dc:1d:d3:c1:13:19:f0:5f:2d:f9:
        f9:87:a6:6b:5c:80:10:ef:d3:39:77:5c:12:7e:34:78:4a:e6:
        9f:6c:7a:fa:bf:54:06:78:2e:5e:1d:10:70:9f:21:c8:63:ba:
        17:cc:ed:50:c0:83:9a:ff:33:2d:f3:17:0d:3e:69:b0:c1:e0:
        87:c8:b8:f2:b4:44:e4:93:58:c1:de:77:c3:b4:a5:18:06:a6:
        55:99:6c:52:08:c4:f7:71:4f:e9:0b:fe:5f:3b:46:33:b4:71:
        78:6e:81:60:cb:3b:40:f9:31:d6:d4:dd:37:85:b2:d0:46:cf:
        ca:a0:0b:f0
-----BEGIN CERTIFICATE-----
MIIENjCCAx6gAwIBAgIBOTANBgkqhkiG9w0BAQsFADBXMQswCQYDVQQGEwJVUzEP
MA0GA1UECgwGR29vZ2xlMRMwEQYDVQQLDApFbnRlcnByaXNlMSIwIAYDVQQDDBlF
bnRlcnByaXNlIFN1Ym9yZGluYXRlIENBMB4XDTIzMDkxNzAyNDczOVoXDTI1MTIy
NTAyNDczOVowTzELMAkGA1UEBhMCVVMxDzANBgNVBAoMBkdvb2dsZTETMBEGA1UE
CwwKRW50ZXJwcmlzZTEaMBgGA1UEAwwRYmUuc2VydmljZS5jb25zdWwwggEiMA0G
CSqGSIb3DQEBAQUAA4IBDwAwggEKAoIBAQCjoOrz27Ner/lB5QFxK6Sh99VHZmeq
RsHxsTAbPZPKLDBDSX79803O1lKFkEWY//66DY6XyxX94XrrM5WeWoqiDpov+TMn
SMjGcMI9L9EHcbx0n7iHDMDFNeqdTHJe6hGdHse1Ozr8YMPukQ6jB+XiyLt6tLQa
j7QIVeb4mKr01LInvyj8WPobavCf8Yoc4avywFocTW6Z/NIWkVeDuKx8xCDtynSe
SYwaJOGRGiVJXUQmnRD36/NzPCeTHXR9pfteUpqj6gYdePq2kIgJ+NSsVwMxC0tV
mNeX2zwS4v6DPQ7QkQgQwnm9fLsL4QQoFWk89GsrcNnG6X/yz4KpDhGBAgMBAAGj
ggETMIIBDzAOBgNVHQ8BAf8EBAMCB4AwCQYDVR0TBAIwADATBgNVHSUEDDAKBggr
BgEFBQcDATAdBgNVHQ4EFgQUTKjXJH9uS+wzPhhfupiAUvuI5jYwHwYDVR0jBBgw
FoAUt7qwAqHnvjTGwQVcZnjlu1NdoVQwRAYIKwYBBQUHAQEEODA2MDQGCCsGAQUF
BzAChihodHRwOi8vcGtpLmVzb2RlbW9hcHAyLmNvbS9jYS90bHMtY2EuY2VyMDkG
A1UdHwQyMDAwLqAsoCqGKGh0dHA6Ly9wa2kuZXNvZGVtb2FwcDIuY29tL2NhL3Rs
cy1jYS5jcmwwHAYDVR0RBBUwE4IRYmUuc2VydmljZS5jb25zdWwwDQYJKoZIhvcN
AQELBQADggEBAE9C0aa07JytJ281ys3meMNvVBx6JfLFoZx6VjCoqx4Mkz40MQc3
n+Q6v+KCGjlx4XUN5D4nVDhviGze+g3AMGZmgz/gp/4lRH2o0Q0lew0RLYWw3910
qQQtLvI9yQHYMVyHBTw1qWotfJQ+U/fc5htdFfTEVbc0YEK+d3gy0jiRn4J48rCN
3B3TwRMZ8F8t+fmHpmtcgBDv0zl3XBJ+NHhK5p9sevq/VAZ4Ll4dEHCfIchjuhfM
7VDAg5r/My3zFw0+abDB4IfIuPK0ROSTWMHed8O0pRgGplWZbFIIxPdxT+kL/l87
RjO0cXhugWDLO0D5MdbU3TeFstBGz8qgC/A=
-----END CERTIFICATE-----
